; Function Attrs: nounwind uwtable
define range(i32 -12, 1) i32 @ff_set_common_samplerates(ptr noundef readonly captures(none) %0, ptr noundef %1) local_unnamed_addr #3 {
  %.not = icmp eq ptr %1, null
  br i1 %.not, label %.thread59, label %.preheader71

.preheader71:                                     ; preds = %2
  %3 = getelementptr inbounds nuw i8, ptr %0, i64 40
  %4 = load i32, ptr %3, align 8, !tbaa !66
  %.not78 = icmp eq i32 %4, 0
  br i1 %.not78, label %.preheader, label %.lr.ph

.lr.ph:                                           ; preds = %.preheader71
  %5 = getelementptr inbounds nuw i8, ptr %0, i64 32
  %6 = getelementptr inbounds nuw i8, ptr %1, i64 24
  %7 = getelementptr inbounds nuw i8, ptr %1, i64 16
  br label %13

.preheader:                                       ; preds = %.thread, %.preheader71
  %8 = getelementptr inbounds nuw i8, ptr %0, i64 64
  %9 = load i32, ptr %8, align 8, !tbaa !75
  %.not79 = icmp eq i32 %9, 0
  br i1 %.not79, label %._crit_edge, label %.lr.ph77

.lr.ph77:                                         ; preds = %.preheader
  %10 = getelementptr inbounds nuw i8, ptr %0, i64 56
  %11 = getelementptr inbounds nuw i8, ptr %1, i64 24
  %12 = getelementptr inbounds nuw i8, ptr %1, i64 16
  br label %42

13:                                               ; preds = %.lr.ph, %.thread
  %14 = phi i32 [ %4, %.lr.ph ], [ %39, %.thread ]
  %indvars.iv = phi i64 [ 0, %.lr.ph ], [ %indvars.iv.next, %.thread ]
  %15 = load ptr, ptr %5, align 8, !tbaa !76
  %16 = getelementptr inbounds nuw ptr, ptr %15, i64 %indvars.iv
  %17 = load ptr, ptr %16, align 8, !tbaa !77
  %.not44 = icmp eq ptr %17, null
  br i1 %.not44, label %.thread, label %18

18:                                               ; preds = %13
  %19 = getelementptr inbounds nuw i8, ptr %17, i64 168
  %20 = load ptr, ptr %19, align 8, !tbaa !84
  %.not45 = icmp eq ptr %20, null
  br i1 %.not45, label %21, label %.thread

21:                                               ; preds = %18
  %22 = getelementptr inbounds nuw i8, ptr %17, i64 32
  %23 = load i32, ptr %22, align 8, !tbaa !4
  %24 = icmp eq i32 %23, 1
  br i1 %24, label %25, label %.thread

25:                                               ; preds = %21
  %26 = load ptr, ptr %6, align 8, !tbaa !42
  %27 = load i32, ptr %7, align 8, !tbaa !41
  %28 = add i32 %27, 1
  %29 = zext i32 %28 to i64
  %30 = tail call ptr @av_realloc_array(ptr noundef %26, i64 noundef 8, i64 noundef %29) #10
  %.not6.i = icmp eq ptr %30, null
  br i1 %.not6.i, label %.preheader.i.i, label %34

.preheader.i.i:                                   ; preds = %25
  %31 = load i32, ptr %7, align 8, !tbaa !41
  %.not26.i.i = icmp eq i32 %31, 0
  br i1 %.not26.i.i, label %.thread.thread.i.i, label %.thread59

.thread.thread.i.i:                               ; preds = %.preheader.i.i
  %32 = getelementptr inbounds nuw i8, ptr %1, i64 8
  %33 = load ptr, ptr %32, align 8, !tbaa !29
  tail call void @av_free(ptr noundef %33) #10
  br label %.thread59.sink.split

34:                                               ; preds = %25
  store ptr %30, ptr %6, align 8, !tbaa !42
  %35 = load i32, ptr %7, align 8, !tbaa !41
  %36 = add i32 %35, 1
  store i32 %36, ptr %7, align 8, !tbaa !41
  %37 = zext i32 %35 to i64
  %38 = getelementptr inbounds nuw ptr, ptr %30, i64 %37
  store ptr %19, ptr %38, align 8, !tbaa !43
  store ptr %1, ptr %19, align 8, !tbaa !23
  %.pre = load i32, ptr %3, align 8, !tbaa !66
  br label %.thread

.thread:                                          ; preds = %13, %18, %21, %34
  %39 = phi i32 [ %14, %13 ], [ %14, %18 ], [ %14, %21 ], [ %.pre, %34 ]
  %indvars.iv.next = add nuw nsw i64 %indvars.iv, 1
  %40 = zext i32 %39 to i64
  %41 = icmp samesign ult i64 %indvars.iv.next, %40
  br i1 %41, label %13, label %.preheader, !llvm.loop !85

42:                                               ; preds = %.lr.ph77, %.thread63
  %43 = phi i32 [ %9, %.lr.ph77 ], [ %68, %.thread63 ]
  %indvars.iv81 = phi i64 [ 0, %.lr.ph77 ], [ %indvars.iv.next82, %.thread63 ]
  %44 = load ptr, ptr %10, align 8, !tbaa !81
  %45 = getelementptr inbounds nuw ptr, ptr %44, i64 %indvars.iv81
  %46 = load ptr, ptr %45, align 8, !tbaa !77
  %.not42 = icmp eq ptr %46, null
  br i1 %.not42, label %.thread63, label %47

47:                                               ; preds = %42
  %48 = getelementptr inbounds nuw i8, ptr %46, i64 128
  %49 = load ptr, ptr %48, align 8, !tbaa !86
  %.not43 = icmp eq ptr %49, null
  br i1 %.not43, label %50, label %.thread63

50:                                               ; preds = %47
  %51 = getelementptr inbounds nuw i8, ptr %46, i64 32
  %52 = load i32, ptr %51, align 8, !tbaa !4
  %53 = icmp eq i32 %52, 1
  br i1 %53, label %54, label %.thread63

54:                                               ; preds = %50
  %55 = load ptr, ptr %11, align 8, !tbaa !42
  %56 = load i32, ptr %12, align 8, !tbaa !41
  %57 = add i32 %56, 1
  %58 = zext i32 %57 to i64
  %59 = tail call ptr @av_realloc_array(ptr noundef %55, i64 noundef 8, i64 noundef %58) #10
  %.not6.i48 = icmp eq ptr %59, null
  br i1 %.not6.i48, label %.preheader.i.i50, label %63

.preheader.i.i50:                                 ; preds = %54
  %60 = load i32, ptr %12, align 8, !tbaa !41
  %.not26.i.i51 = icmp eq i32 %60, 0
  br i1 %.not26.i.i51, label %.thread.thread.i.i52, label %.thread59

.thread.thread.i.i52:                             ; preds = %.preheader.i.i50
  %61 = getelementptr inbounds nuw i8, ptr %1, i64 8
  %62 = load ptr, ptr %61, align 8, !tbaa !29
  tail call void @av_free(ptr noundef %62) #10
  br label %.thread59.sink.split

63:                                               ; preds = %54
  store ptr %59, ptr %11, align 8, !tbaa !42
  %64 = load i32, ptr %12, align 8, !tbaa !41
  %65 = add i32 %64, 1
  store i32 %65, ptr %12, align 8, !tbaa !41
  %66 = zext i32 %64 to i64
  %67 = getelementptr inbounds nuw ptr, ptr %59, i64 %66
  store ptr %48, ptr %67, align 8, !tbaa !43
  store ptr %1, ptr %48, align 8, !tbaa !23
  %.pre84 = load i32, ptr %8, align 8, !tbaa !75
  br label %.thread63

.thread63:                                        ; preds = %42, %47, %50, %63
  %68 = phi i32 [ %43, %42 ], [ %43, %47 ], [ %43, %50 ], [ %.pre84, %63 ]
  %indvars.iv.next82 = add nuw nsw i64 %indvars.iv81, 1
  %69 = zext i32 %68 to i64
  %70 = icmp samesign ult i64 %indvars.iv.next82, %69
  br i1 %70, label %42, label %._crit_edge, !llvm.loop !87

._crit_edge:                                      ; preds = %.thread63, %.preheader
  %71 = getelementptr inbounds nuw i8, ptr %1, i64 16
  %72 = load i32, ptr %71, align 8, !tbaa !41
  %.not41 = icmp eq i32 %72, 0
  br i1 %.not41, label %ff_formats_unref.exit, label %.thread59

ff_formats_unref.exit:                            ; preds = %._crit_edge
  %73 = getelementptr inbounds nuw i8, ptr %1, i64 8
  %74 = load ptr, ptr %73, align 8, !tbaa !29
  tail call void @av_free(ptr noundef %74) #10
  %75 = getelementptr inbounds nuw i8, ptr %1, i64 24
  br label %.thread59.sink.split

.thread59.sink.split:                             ; preds = %ff_formats_unref.exit, %.thread.thread.i.i, %.thread.thread.i.i52
  %.sink.in = phi ptr [ %11, %.thread.thread.i.i52 ], [ %6, %.thread.thread.i.i ], [ %75, %ff_formats_unref.exit ]
  %.0.ph = phi i32 [ -12, %.thread.thread.i.i52 ], [ -12, %.thread.thread.i.i ], [ 0, %ff_formats_unref.exit ]
  %.sink = load ptr, ptr %.sink.in, align 8, !tbaa !42
  tail call void @av_free(ptr noundef %.sink) #10
  tail call void @av_free(ptr noundef nonnull %1) #10
  br label %.thread59

.thread59:                                        ; preds = %.thread59.sink.split, %.preheader.i.i50, %.preheader.i.i, %._crit_edge, %2
  %.0 = phi i32 [ -12, %2 ], [ 0, %._crit_edge ], [ -12, %.preheader.i.i ], [ -12, %.preheader.i.i50 ], [ %.0.ph, %.thread59.sink.split ]
  ret i32 %.0
}